target datalayout = "e-m:e-p270:32:32-p271:32:32-p272:64:64-i64:64-i128:128-f80:128-n8:16:32:64-S128"
target triple = "x86_64-pc-linux-gnu"

%struct.JsonLexContext = type { ptr, i64, i32, ptr, ptr, ptr, i8, i32, i32, i32, i32, ptr, ptr, ptr, i8, ptr, ptr }
%struct.JsonParserStack = type { i32, ptr, i64, ptr, ptr, i32, ptr }

; Function Attrs: inlinehint nounwind uwtable
define internal zeroext i1 @inc_lex_level(ptr noundef %0) #0 {
  %2 = alloca i1, align 1
  %3 = alloca ptr, align 8
  %4 = alloca i64, align 8
  %5 = alloca ptr, align 8
  %6 = alloca ptr, align 8
  %7 = alloca ptr, align 8
  %8 = alloca i32, align 4
  store ptr %0, ptr %3, align 8
  %9 = load ptr, ptr %3, align 8
  %10 = getelementptr inbounds nuw %struct.JsonLexContext, ptr %9, i32 0, i32 6
  %11 = load i8, ptr %10, align 8, !range !3, !noundef !4
  %12 = trunc i8 %11 to i1
  br i1 %12, label %13, label %92

13:                                               ; preds = %1
  %14 = load ptr, ptr %3, align 8
  %15 = getelementptr inbounds nuw %struct.JsonLexContext, ptr %14, i32 0, i32 8
  %16 = load i32, ptr %15, align 8
  %17 = add i32 %16, 1
  %18 = load ptr, ptr %3, align 8
  %19 = getelementptr inbounds nuw %struct.JsonLexContext, ptr %18, i32 0, i32 12
  %20 = load ptr, ptr %19, align 8
  %21 = getelementptr inbounds nuw %struct.JsonParserStack, ptr %20, i32 0, i32 0
  %22 = load i32, ptr %21, align 8
  %23 = icmp sge i32 %17, %22
  br i1 %23, label %24, label %92

24:                                               ; preds = %13
  call void @llvm.lifetime.start.p0(i64 8, ptr %4) #15
  call void @llvm.lifetime.start.p0(i64 8, ptr %5) #15
  call void @llvm.lifetime.start.p0(i64 8, ptr %6) #15
  call void @llvm.lifetime.start.p0(i64 8, ptr %7) #15
  %25 = load ptr, ptr %3, align 8
  %26 = getelementptr inbounds nuw %struct.JsonLexContext, ptr %25, i32 0, i32 12
  %27 = load ptr, ptr %26, align 8
  %28 = getelementptr inbounds nuw %struct.JsonParserStack, ptr %27, i32 0, i32 0
  %29 = load i32, ptr %28, align 8
  %30 = add i32 %29, 64
  %31 = sext i32 %30 to i64
  store i64 %31, ptr %4, align 8
  %32 = load ptr, ptr %3, align 8
  %33 = getelementptr inbounds nuw %struct.JsonLexContext, ptr %32, i32 0, i32 12
  %34 = load ptr, ptr %33, align 8
  %35 = getelementptr inbounds nuw %struct.JsonParserStack, ptr %34, i32 0, i32 1
  %36 = load ptr, ptr %35, align 8
  %37 = load i64, ptr %4, align 8
  %38 = mul i64 %37, 10
  %39 = call ptr @realloc(ptr noundef %36, i64 noundef %38) #19
  store ptr %39, ptr %5, align 8
  %40 = load ptr, ptr %5, align 8
  %41 = icmp ne ptr %40, null
  br i1 %41, label %43, label %42

42:                                               ; preds = %24
  store i1 false, ptr %2, align 1
  store i32 1, ptr %8, align 4
  br label %89

43:                                               ; preds = %24
  %44 = load ptr, ptr %5, align 8
  %45 = load ptr, ptr %3, align 8
  %46 = getelementptr inbounds nuw %struct.JsonLexContext, ptr %45, i32 0, i32 12
  %47 = load ptr, ptr %46, align 8
  %48 = getelementptr inbounds nuw %struct.JsonParserStack, ptr %47, i32 0, i32 1
  store ptr %44, ptr %48, align 8
  %49 = load ptr, ptr %3, align 8
  %50 = getelementptr inbounds nuw %struct.JsonLexContext, ptr %49, i32 0, i32 12
  %51 = load ptr, ptr %50, align 8
  %52 = getelementptr inbounds nuw %struct.JsonParserStack, ptr %51, i32 0, i32 3
  %53 = load ptr, ptr %52, align 8
  %54 = load i64, ptr %4, align 8
  %55 = mul i64 %54, 8
  %56 = call ptr @realloc(ptr noundef %53, i64 noundef %55) #19
  store ptr %56, ptr %6, align 8
  %57 = load ptr, ptr %6, align 8
  %58 = icmp ne ptr %57, null
  br i1 %58, label %60, label %59

59:                                               ; preds = %43
  store i1 false, ptr %2, align 1
  store i32 1, ptr %8, align 4
  br label %89

60:                                               ; preds = %43
  %61 = load ptr, ptr %6, align 8
  %62 = load ptr, ptr %3, align 8
  %63 = getelementptr inbounds nuw %struct.JsonLexContext, ptr %62, i32 0, i32 12
  %64 = load ptr, ptr %63, align 8
  %65 = getelementptr inbounds nuw %struct.JsonParserStack, ptr %64, i32 0, i32 3
  store ptr %61, ptr %65, align 8
  %66 = load ptr, ptr %3, align 8
  %67 = getelementptr inbounds nuw %struct.JsonLexContext, ptr %66, i32 0, i32 12
  %68 = load ptr, ptr %67, align 8
  %69 = getelementptr inbounds nuw %struct.JsonParserStack, ptr %68, i32 0, i32 4
  %70 = load ptr, ptr %69, align 8
  %71 = load i64, ptr %4, align 8
  %72 = mul i64 %71, 1
  %73 = call ptr @realloc(ptr noundef %70, i64 noundef %72) #19
  store ptr %73, ptr %7, align 8
  %74 = load ptr, ptr %7, align 8
  %75 = icmp ne ptr %74, null
  br i1 %75, label %77, label %76

76:                                               ; preds = %60
  store i1 false, ptr %2, align 1
  store i32 1, ptr %8, align 4
  br label %89

77:                                               ; preds = %60
  %78 = load ptr, ptr %7, align 8
  %79 = load ptr, ptr %3, align 8
  %80 = getelementptr inbounds nuw %struct.JsonLexContext, ptr %79, i32 0, i32 12
  %81 = load ptr, ptr %80, align 8
  %82 = getelementptr inbounds nuw %struct.JsonParserStack, ptr %81, i32 0, i32 4
  store ptr %78, ptr %82, align 8
  %83 = load i64, ptr %4, align 8
  %84 = trunc i64 %83 to i32
  %85 = load ptr, ptr %3, align 8
  %86 = getelementptr inbounds nuw %struct.JsonLexContext, ptr %85, i32 0, i32 12
  %87 = load ptr, ptr %86, align 8
  %88 = getelementptr inbounds nuw %struct.JsonParserStack, ptr %87, i32 0, i32 0
  store i32 %84, ptr %88, align 8
  store i32 0, ptr %8, align 4
  br label %89

89:                                               ; preds = %77, %76, %59, %42
  call void @llvm.lifetime.end.p0(i64 8, ptr %7) #15
  call void @llvm.lifetime.end.p0(i64 8, ptr %6) #15
  call void @llvm.lifetime.end.p0(i64 8, ptr %5) #15
  call void @llvm.lifetime.end.p0(i64 8, ptr %4) #15
  %90 = load i32, ptr %8, align 4
  switch i32 %90, label %115 [
    i32 0, label %91
    i32 1, label %113
  ]

91:                                               ; preds = %89
  br label %92

92:                                               ; preds = %91, %13, %1
  %93 = load ptr, ptr %3, align 8
  %94 = getelementptr inbounds nuw %struct.JsonLexContext, ptr %93, i32 0, i32 8
  %95 = load i32, ptr %94, align 8
  %96 = add i32 %95, 1
  store i32 %96, ptr %94, align 8
  %97 = load ptr, ptr %3, align 8
  %98 = getelementptr inbounds nuw %struct.JsonLexContext, ptr %97, i32 0, i32 6
  %99 = load i8, ptr %98, align 8, !range !3, !noundef !4
  %100 = trunc i8 %99 to i1
  br i1 %100, label %101, label %112

101:                                              ; preds = %92
  %102 = load ptr, ptr %3, align 8
  %103 = getelementptr inbounds nuw %struct.JsonLexContext, ptr %102, i32 0, i32 12
  %104 = load ptr, ptr %103, align 8
  %105 = getelementptr inbounds nuw %struct.JsonParserStack, ptr %104, i32 0, i32 3
  %106 = load ptr, ptr %105, align 8
  %107 = load ptr, ptr %3, align 8
  %108 = getelementptr inbounds nuw %struct.JsonLexContext, ptr %107, i32 0, i32 8
  %109 = load i32, ptr %108, align 8
  %110 = sext i32 %109 to i64
  %111 = getelementptr inbounds ptr, ptr %106, i64 %110
  store ptr null, ptr %111, align 8
  br label %112

112:                                              ; preds = %101, %92
  store i1 true, ptr %2, align 1
  br label %113

113:                                              ; preds = %112, %89
  %114 = load i1, ptr %2, align 1
  ret i1 %114

115:                                              ; preds = %89
  unreachable
}