; Function Attrs: inlinehint mustprogress nounwind willreturn uwtable
define internal fastcc noundef zeroext i1 @inc_lex_level(ptr noundef captures(none) %0) unnamed_addr #10 {
  %2 = getelementptr inbounds nuw i8, ptr %0, i64 48
  %3 = load i8, ptr %2, align 8, !range !3, !noundef !4
  %4 = trunc nuw i8 %3 to i1
  %5 = getelementptr inbounds nuw i8, ptr %0, i64 56
  %6 = load i32, ptr %5, align 8
  %7 = add i32 %6, 1
  br i1 %4, label %8, label %.thread37

.thread37:                                        ; preds = %1
  store i32 %7, ptr %5, align 8
  br label %.thread

8:                                                ; preds = %1
  %9 = getelementptr inbounds nuw i8, ptr %0, i64 80
  %10 = load ptr, ptr %9, align 8
  %11 = load i32, ptr %10, align 8
  %.not = icmp slt i32 %7, %11
  br i1 %.not, label %.thread36, label %15

.thread36:                                        ; preds = %8
  %12 = getelementptr inbounds nuw i8, ptr %0, i64 56
  %13 = load i32, ptr %12, align 8
  %14 = add i32 %13, 1
  store i32 %14, ptr %12, align 8
  br label %45

15:                                               ; preds = %8
  %16 = add i32 %11, 64
  %17 = sext i32 %16 to i64
  %18 = getelementptr inbounds nuw i8, ptr %10, i64 8
  %19 = load ptr, ptr %18, align 8
  %20 = mul nsw i64 %17, 10
  %21 = tail call ptr @realloc(ptr noundef %19, i64 noundef %20) #20
  %.not31 = icmp eq ptr %21, null
  br i1 %.not31, label %.thread, label %22

22:                                               ; preds = %15
  %23 = load ptr, ptr %9, align 8
  %24 = getelementptr inbounds nuw i8, ptr %23, i64 8
  store ptr %21, ptr %24, align 8
  %25 = load ptr, ptr %9, align 8
  %26 = getelementptr inbounds nuw i8, ptr %25, i64 24
  %27 = load ptr, ptr %26, align 8
  %28 = shl nsw i64 %17, 3
  %29 = tail call ptr @realloc(ptr noundef %27, i64 noundef %28) #20
  %.not32 = icmp eq ptr %29, null
  br i1 %.not32, label %.thread, label %30

30:                                               ; preds = %22
  %31 = load ptr, ptr %9, align 8
  %32 = getelementptr inbounds nuw i8, ptr %31, i64 24
  store ptr %29, ptr %32, align 8
  %33 = load ptr, ptr %9, align 8
  %34 = getelementptr inbounds nuw i8, ptr %33, i64 32
  %35 = load ptr, ptr %34, align 8
  %36 = tail call ptr @realloc(ptr noundef %35, i64 noundef %17) #20
  %.not33 = icmp eq ptr %36, null
  br i1 %.not33, label %.thread, label %37

37:                                               ; preds = %30
  %38 = load ptr, ptr %9, align 8
  %39 = getelementptr inbounds nuw i8, ptr %38, i64 32
  store ptr %36, ptr %39, align 8
  %40 = load ptr, ptr %9, align 8
  store i32 %16, ptr %40, align 8
  %.pre = load i8, ptr %2, align 8, !range !3
  %41 = getelementptr inbounds nuw i8, ptr %0, i64 56
  %42 = load i32, ptr %41, align 8
  %43 = add i32 %42, 1
  store i32 %43, ptr %41, align 8
  %44 = trunc nuw i8 %.pre to i1
  br i1 %44, label %45, label %.thread

45:                                               ; preds = %.thread36, %37
  %46 = phi i32 [ %14, %.thread36 ], [ %43, %37 ]
  %47 = getelementptr inbounds nuw i8, ptr %0, i64 80
  %48 = load ptr, ptr %47, align 8
  %49 = getelementptr inbounds nuw i8, ptr %48, i64 24
  %50 = load ptr, ptr %49, align 8
  %51 = sext i32 %46 to i64
  %52 = getelementptr inbounds ptr, ptr %50, i64 %51
  store ptr null, ptr %52, align 8
  br label %.thread

.thread:                                          ; preds = %.thread37, %30, %22, %15, %37, %45
  %.1 = phi i1 [ true, %45 ], [ true, %37 ], [ false, %15 ], [ false, %22 ], [ false, %30 ], [ true, %.thread37 ]
  ret i1 %.1
}